; Function Attrs: mustprogress uwtable
define internal void @_ZN9grpc_core21promise_filter_detail29ChannelFilterWithFlagsMethodsINS_12_GLOBAL__N_122ServerCallTracerFilterELh1EE18DestroyChannelElemEP20grpc_channel_element(ptr noundef readonly captures(none) %0) #4 align 2 personality ptr @__gxx_personality_v0 {
  %2 = getelementptr inbounds nuw i8, ptr %0, i64 8
  %3 = load ptr, ptr %2, align 8, !tbaa !32
  %4 = load ptr, ptr %3, align 8, !tbaa !34
  %.not.i = icmp eq ptr %4, null
  br i1 %.not.i, label %_ZNSt10unique_ptrIN9grpc_core12_GLOBAL__N_122ServerCallTracerFilterESt14default_deleteIS2_EED2Ev.exit, label %_ZNKSt14default_deleteIN9grpc_core12_GLOBAL__N_122ServerCallTracerFilterEEclEPS2_.exit.i

_ZNKSt14default_deleteIN9grpc_core12_GLOBAL__N_122ServerCallTracerFilterEEclEPS2_.exit.i: ; preds = %1
  %5 = load ptr, ptr %4, align 8, !tbaa !19
  %6 = getelementptr inbounds nuw i8, ptr %5, i64 40
  %7 = load ptr, ptr %6, align 8
  tail call void %7(ptr noundef nonnull align 8 dereferenceable(8) %4) #31
  br label %_ZNSt10unique_ptrIN9grpc_core12_GLOBAL__N_122ServerCallTracerFilterESt14default_deleteIS2_EED2Ev.exit

_ZNSt10unique_ptrIN9grpc_core12_GLOBAL__N_122ServerCallTracerFilterESt14default_deleteIS2_EED2Ev.exit: ; preds = %1, %_ZNKSt14default_deleteIN9grpc_core12_GLOBAL__N_122ServerCallTracerFilterEEclEPS2_.exit.i
  ret void
}